target datalayout = "e-m:e-p270:32:32-p271:32:32-p272:64:64-i64:64-i128:128-f80:128-n8:16:32:64-S128"
target triple = "x86_64-pc-linux-gnu"

%class.Node = type <{ ptr, ptr, ptr, i32, i32, i32, i32, i32, i32, i32, [4 x i8] }>
%class.PhaseValues = type { %class.PhaseTransform, i8, ptr, ptr, [137 x ptr], [137 x ptr], [20 x ptr] }
%class.PhaseTransform = type { ptr, %class.Phase }
%class.Phase = type { i32, ptr }
%class.Type.base = type <{ ptr, ptr, i32 }>
%class.Type = type <{ ptr, ptr, i32, [4 x i8] }>
%class.TypeD = type { %class.Type.base, double }
%class.Type_Array = type { ptr, i32, ptr }

@_ZN4Type3TOPE = external global ptr, align 8
@_ZN4Type6DOUBLEE = external global ptr, align 8

; Function Attrs: mustprogress nounwind uwtable
define linkonce_odr hidden noundef ptr @_ZNK10Type_Array11fast_lookupEj(ptr noundef nonnull align 8 dereferenceable(24) %0, i32 noundef %1) #1 comdat align 2 {
  %3 = alloca ptr, align 8
  %4 = alloca i32, align 4
  store ptr %0, ptr %3, align 8
  store i32 %1, ptr %4, align 4
  %5 = load ptr, ptr %3, align 8
  %6 = getelementptr inbounds %class.Type_Array, ptr %5, i32 0, i32 2
  %7 = load ptr, ptr %6, align 8
  %8 = load i32, ptr %4, align 4
  %9 = zext i32 %8 to i64
  %10 = getelementptr inbounds ptr, ptr %7, i64 %9
  %11 = load ptr, ptr %10, align 8
  ret ptr %11
}

; Function Attrs: mustprogress nounwind uwtable
define linkonce_odr hidden noundef double @_ZNK4Type4getdEv(ptr noundef nonnull align 8 dereferenceable(20) %0) #1 comdat align 2 {
  %2 = alloca ptr, align 8
  store ptr %0, ptr %2, align 8
  %3 = load ptr, ptr %2, align 8
  %4 = getelementptr inbounds %class.TypeD, ptr %3, i32 0, i32 1
  %5 = load double, ptr %4, align 8
  ret double %5
}

; Function Attrs: mustprogress nounwind uwtable
define linkonce_odr hidden noundef i32 @_ZNK4Type4baseEv(ptr noundef nonnull align 8 dereferenceable(20) %0) #1 comdat align 2 {
  %2 = alloca ptr, align 8
  store ptr %0, ptr %2, align 8
  %3 = load ptr, ptr %2, align 8
  %4 = getelementptr inbounds %class.Type, ptr %3, i32 0, i32 2
  %5 = load i32, ptr %4, align 8
  ret i32 %5
}

; Function Attrs: mustprogress nounwind uwtable
define linkonce_odr hidden noundef ptr @_ZNK11PhaseValues4typeEPK4Node(ptr noundef nonnull align 8 dereferenceable(2400) %0, ptr noundef %1) #1 comdat align 2 {
  %3 = alloca ptr, align 8
  %4 = alloca ptr, align 8
  %5 = alloca ptr, align 8
  store ptr %0, ptr %3, align 8
  store ptr %1, ptr %4, align 8
  %6 = load ptr, ptr %3, align 8
  %7 = getelementptr inbounds %class.PhaseValues, ptr %6, i32 0, i32 3
  %8 = load ptr, ptr %7, align 8
  %9 = load ptr, ptr %4, align 8
  %10 = getelementptr inbounds %class.Node, ptr %9, i32 0, i32 7
  %11 = load i32, ptr %10, align 8
  %12 = call noundef ptr @_ZNK10Type_Array11fast_lookupEj(ptr noundef nonnull align 8 dereferenceable(24) %8, i32 noundef %11)
  store ptr %12, ptr %5, align 8
  %13 = load ptr, ptr %5, align 8
  ret ptr %13
}

; Function Attrs: mustprogress nounwind uwtable
define linkonce_odr hidden noundef ptr @_ZNK4Node2inEj(ptr noundef nonnull align 8 dereferenceable(52) %0, i32 noundef %1) #1 comdat align 2 {
  %3 = alloca ptr, align 8
  %4 = alloca i32, align 4
  store ptr %0, ptr %3, align 8
  store i32 %1, ptr %4, align 4
  %5 = load ptr, ptr %3, align 8
  %6 = getelementptr inbounds %class.Node, ptr %5, i32 0, i32 1
  %7 = load ptr, ptr %6, align 8
  %8 = load i32, ptr %4, align 4
  %9 = zext i32 %8 to i64
  %10 = getelementptr inbounds ptr, ptr %7, i64 %9
  %11 = load ptr, ptr %10, align 8
  ret ptr %11
}

; Function Attrs: mustprogress nounwind uwtable
define hidden noundef ptr @_ZNK8FmaDNode5ValueEP8PhaseGVN(ptr noundef nonnull align 8 dereferenceable(52) %0, ptr noundef %1) unnamed_addr #1 align 2 {
  %3 = alloca ptr, align 8
  %4 = alloca ptr, align 8
  %5 = alloca ptr, align 8
  %6 = alloca ptr, align 8
  %7 = alloca ptr, align 8
  %8 = alloca ptr, align 8
  %9 = alloca double, align 8
  %10 = alloca double, align 8
  %11 = alloca double, align 8
  store ptr %0, ptr %4, align 8
  store ptr %1, ptr %5, align 8
  %12 = load ptr, ptr %4, align 8
  %13 = load ptr, ptr %5, align 8
  %14 = call noundef ptr @_ZNK4Node2inEj(ptr noundef nonnull align 8 dereferenceable(52) %12, i32 noundef 1)
  %15 = call noundef ptr @_ZNK11PhaseValues4typeEPK4Node(ptr noundef nonnull align 8 dereferenceable(2400) %13, ptr noundef %14)
  store ptr %15, ptr %6, align 8
  %16 = load ptr, ptr %6, align 8
  %17 = load ptr, ptr @_ZN4Type3TOPE, align 8
  %18 = icmp eq ptr %16, %17
  br i1 %18, label %19, label %21

19:                                               ; preds = %2
  %20 = load ptr, ptr @_ZN4Type3TOPE, align 8
  store ptr %20, ptr %3, align 8
  br label %69

21:                                               ; preds = %2
  %22 = load ptr, ptr %6, align 8
  %23 = call noundef i32 @_ZNK4Type4baseEv(ptr noundef nonnull align 8 dereferenceable(20) %22)
  %24 = icmp ne i32 %23, 35
  br i1 %24, label %25, label %27

25:                                               ; preds = %21
  %26 = load ptr, ptr @_ZN4Type6DOUBLEE, align 8
  store ptr %26, ptr %3, align 8
  br label %69

27:                                               ; preds = %21
  %28 = load ptr, ptr %5, align 8
  %29 = call noundef ptr @_ZNK4Node2inEj(ptr noundef nonnull align 8 dereferenceable(52) %12, i32 noundef 2)
  %30 = call noundef ptr @_ZNK11PhaseValues4typeEPK4Node(ptr noundef nonnull align 8 dereferenceable(2400) %28, ptr noundef %29)
  store ptr %30, ptr %7, align 8
  %31 = load ptr, ptr %7, align 8
  %32 = load ptr, ptr @_ZN4Type3TOPE, align 8
  %33 = icmp eq ptr %31, %32
  br i1 %33, label %34, label %36

34:                                               ; preds = %27
  %35 = load ptr, ptr @_ZN4Type3TOPE, align 8
  store ptr %35, ptr %3, align 8
  br label %69

36:                                               ; preds = %27
  %37 = load ptr, ptr %7, align 8
  %38 = call noundef i32 @_ZNK4Type4baseEv(ptr noundef nonnull align 8 dereferenceable(20) %37)
  %39 = icmp ne i32 %38, 35
  br i1 %39, label %40, label %42

40:                                               ; preds = %36
  %41 = load ptr, ptr @_ZN4Type6DOUBLEE, align 8
  store ptr %41, ptr %3, align 8
  br label %69

42:                                               ; preds = %36
  %43 = load ptr, ptr %5, align 8
  %44 = call noundef ptr @_ZNK4Node2inEj(ptr noundef nonnull align 8 dereferenceable(52) %12, i32 noundef 3)
  %45 = call noundef ptr @_ZNK11PhaseValues4typeEPK4Node(ptr noundef nonnull align 8 dereferenceable(2400) %43, ptr noundef %44)
  store ptr %45, ptr %8, align 8
  %46 = load ptr, ptr %8, align 8
  %47 = load ptr, ptr @_ZN4Type3TOPE, align 8
  %48 = icmp eq ptr %46, %47
  br i1 %48, label %49, label %51

49:                                               ; preds = %42
  %50 = load ptr, ptr @_ZN4Type3TOPE, align 8
  store ptr %50, ptr %3, align 8
  br label %69

51:                                               ; preds = %42
  %52 = load ptr, ptr %8, align 8
  %53 = call noundef i32 @_ZNK4Type4baseEv(ptr noundef nonnull align 8 dereferenceable(20) %52)
  %54 = icmp ne i32 %53, 35
  br i1 %54, label %55, label %57

55:                                               ; preds = %51
  %56 = load ptr, ptr @_ZN4Type6DOUBLEE, align 8
  store ptr %56, ptr %3, align 8
  br label %69

57:                                               ; preds = %51
  %58 = load ptr, ptr %6, align 8
  %59 = call noundef double @_ZNK4Type4getdEv(ptr noundef nonnull align 8 dereferenceable(20) %58)
  store double %59, ptr %9, align 8
  %60 = load ptr, ptr %7, align 8
  %61 = call noundef double @_ZNK4Type4getdEv(ptr noundef nonnull align 8 dereferenceable(20) %60)
  store double %61, ptr %10, align 8
  %62 = load ptr, ptr %8, align 8
  %63 = call noundef double @_ZNK4Type4getdEv(ptr noundef nonnull align 8 dereferenceable(20) %62)
  store double %63, ptr %11, align 8
  %64 = load double, ptr %9, align 8
  %65 = load double, ptr %10, align 8
  %66 = load double, ptr %11, align 8
  %67 = call double @llvm.fma.f64(double %64, double %65, double %66)
  %68 = call noundef ptr @_ZN5TypeD4makeEd(double noundef %67)
  store ptr %68, ptr %3, align 8
  br label %69

69:                                               ; preds = %57, %55, %49, %40, %34, %25, %19
  %70 = load ptr, ptr %3, align 8
  ret ptr %70
}