; Function Attrs: mustprogress nounwind uwtable
define hidden noundef ptr @_ZNK8FmaDNode5ValueEP8PhaseGVN(ptr nocapture noundef nonnull readonly align 8 dereferenceable(52) %0, ptr nocapture noundef readonly %1) unnamed_addr #0 align 2 {
  %3 = getelementptr inbounds i8, ptr %0, i64 8
  %4 = load ptr, ptr %3, align 8
  %5 = getelementptr inbounds i8, ptr %4, i64 8
  %6 = load ptr, ptr %5, align 8
  %7 = getelementptr inbounds i8, ptr %1, i64 40
  %8 = load ptr, ptr %7, align 8
  %9 = getelementptr inbounds i8, ptr %6, i64 40
  %10 = load i32, ptr %9, align 8
  %11 = getelementptr inbounds i8, ptr %8, i64 16
  %12 = load ptr, ptr %11, align 8
  %13 = zext i32 %10 to i64
  %14 = getelementptr inbounds ptr, ptr %12, i64 %13
  %15 = load ptr, ptr %14, align 8
  %16 = load ptr, ptr @_ZN4Type3TOPE, align 8
  %17 = icmp eq ptr %15, %16
  br i1 %17, label %60, label %18

18:                                               ; preds = %2
  %19 = getelementptr inbounds i8, ptr %15, i64 16
  %20 = load i32, ptr %19, align 8
  %.not = icmp eq i32 %20, 35
  br i1 %.not, label %23, label %21

21:                                               ; preds = %18
  %22 = load ptr, ptr @_ZN4Type6DOUBLEE, align 8
  br label %60

23:                                               ; preds = %18
  %24 = getelementptr inbounds i8, ptr %4, i64 16
  %25 = load ptr, ptr %24, align 8
  %26 = getelementptr inbounds i8, ptr %25, i64 40
  %27 = load i32, ptr %26, align 8
  %28 = zext i32 %27 to i64
  %29 = getelementptr inbounds ptr, ptr %12, i64 %28
  %30 = load ptr, ptr %29, align 8
  %31 = icmp eq ptr %30, %16
  br i1 %31, label %60, label %32

32:                                               ; preds = %23
  %33 = getelementptr inbounds i8, ptr %30, i64 16
  %34 = load i32, ptr %33, align 8
  %.not23 = icmp eq i32 %34, 35
  br i1 %.not23, label %37, label %35

35:                                               ; preds = %32
  %36 = load ptr, ptr @_ZN4Type6DOUBLEE, align 8
  br label %60

37:                                               ; preds = %32
  %38 = getelementptr inbounds i8, ptr %4, i64 24
  %39 = load ptr, ptr %38, align 8
  %40 = getelementptr inbounds i8, ptr %39, i64 40
  %41 = load i32, ptr %40, align 8
  %42 = zext i32 %41 to i64
  %43 = getelementptr inbounds ptr, ptr %12, i64 %42
  %44 = load ptr, ptr %43, align 8
  %45 = icmp eq ptr %44, %16
  br i1 %45, label %60, label %46

46:                                               ; preds = %37
  %47 = getelementptr inbounds i8, ptr %44, i64 16
  %48 = load i32, ptr %47, align 8
  %.not24 = icmp eq i32 %48, 35
  br i1 %.not24, label %51, label %49

49:                                               ; preds = %46
  %50 = load ptr, ptr @_ZN4Type6DOUBLEE, align 8
  br label %60

51:                                               ; preds = %46
  %52 = getelementptr inbounds i8, ptr %15, i64 24
  %53 = load double, ptr %52, align 8
  %54 = getelementptr inbounds i8, ptr %30, i64 24
  %55 = load double, ptr %54, align 8
  %56 = getelementptr inbounds i8, ptr %44, i64 24
  %57 = load double, ptr %56, align 8
  %58 = tail call double @llvm.fma.f64(double %53, double %55, double %57)
  %59 = tail call noundef ptr @_ZN5TypeD4makeEd(double noundef %58) #10
  br label %60

60:                                               ; preds = %37, %23, %2, %51, %49, %35, %21
  %.0 = phi ptr [ %22, %21 ], [ %36, %35 ], [ %50, %49 ], [ %59, %51 ], [ %16, %2 ], [ %16, %23 ], [ %16, %37 ]
  ret ptr %.0
}